; Function Attrs: mustprogress uwtable
define hidden noundef nonnull ptr @ncnn_extractor_create(ptr nocapture noundef readonly %0) local_unnamed_addr #1 personality ptr @__gxx_personality_v0 {
  %2 = tail call noalias noundef nonnull dereferenceable(16) ptr @_Znwm(i64 noundef 16) #24
  %3 = load ptr, ptr %0, align 8
  invoke void @_ZNK4ncnn3Net16create_extractorEv(ptr dead_on_unwind nonnull writable sret(%"class.ncnn::Extractor") align 8 %2, ptr noundef nonnull align 8 dereferenceable(80) %3)
          to label %4 unwind label %5

4:                                                ; preds = %1
  ret ptr %2

5:                                                ; preds = %1
  %6 = landingpad { ptr, i32 }
          cleanup
  tail call void @_ZdlPvm(ptr noundef nonnull %2, i64 noundef 16) #25
  resume { ptr, i32 } %6
}